target datalayout = "e-m:e-p270:32:32-p271:32:32-p272:64:64-i64:64-i128:128-f80:128-n8:16:32:64-S128"
target triple = "x86_64-pc-linux-gnu"

%struct.black_TWorker_ = type { i32, i32, i32, i32, i32, ptr, ptr, ptr, ptr, i32, i8, i64, i64, i64, i64, i16, i32, ptr, ptr, ptr, i32, %struct.FT_Outline_, i32, i32, i32, ptr, ptr, ptr, ptr, ptr, ptr }
%struct.FT_Outline_ = type { i16, i16, ptr, ptr, ptr, i32 }

; Function Attrs: nounwind uwtable
define internal void @Vertical_Sweep_Step(ptr noundef %0) #0 {
  %2 = alloca ptr, align 8
  store ptr %0, ptr %2, align 8, !tbaa !105
  %3 = load ptr, ptr %2, align 8, !tbaa !105
  %4 = getelementptr inbounds nuw %struct.black_TWorker_, ptr %3, i32 0, i32 24
  %5 = load i32, ptr %4, align 8, !tbaa !58
  %6 = load ptr, ptr %2, align 8, !tbaa !105
  %7 = getelementptr inbounds nuw %struct.black_TWorker_, ptr %6, i32 0, i32 26
  %8 = load ptr, ptr %7, align 8, !tbaa !120
  %9 = sext i32 %5 to i64
  %10 = sub i64 0, %9
  %11 = getelementptr inbounds i8, ptr %8, i64 %10
  store ptr %11, ptr %7, align 8, !tbaa !120
  ret void
}