; Function Attrs: mustprogress nofree norecurse nosync nounwind willreturn memory(argmem: readwrite) uwtable
define internal void @Vertical_Sweep_Step(ptr noundef captures(none) %0) #5 {
  %2 = getelementptr inbounds nuw i8, ptr %0, i64 184
  %3 = load i32, ptr %2, align 8, !tbaa !43
  %4 = getelementptr inbounds nuw i8, ptr %0, i64 200
  %5 = load ptr, ptr %4, align 8, !tbaa !95
  %6 = sext i32 %3 to i64
  %7 = sub nsw i64 0, %6
  %8 = getelementptr inbounds i8, ptr %5, i64 %7
  store ptr %8, ptr %4, align 8, !tbaa !95
  ret void
}